target datalayout = "e-m:e-p270:32:32-p271:32:32-p272:64:64-i64:64-i128:128-f80:128-n8:16:32:64-S128"
target triple = "x86_64-pc-linux-gnu"

%struct.archive_write_filter = type { i64, ptr, ptr, ptr, ptr, ptr, ptr, ptr, ptr, ptr, ptr, i32, i32, i32, i32 }
%struct.private_data = type { i32, i32, i32, i32, i32, i64, i64, i64, i64, i64, i64, i64, i64, ptr, %struct.ZSTD_outBuffer_s }
%struct.ZSTD_outBuffer_s = type { ptr, i64, i64 }

; Function Attrs: nounwind uwtable
define internal i32 @archive_compressor_zstd_free(ptr noundef %0) #0 {
  %2 = alloca ptr, align 8
  %3 = alloca ptr, align 8
  store ptr %0, ptr %2, align 8, !tbaa !11
  call void @llvm.lifetime.start.p0(i64 8, ptr %3) #8
  %4 = load ptr, ptr %2, align 8, !tbaa !11
  %5 = getelementptr inbounds nuw %struct.archive_write_filter, ptr %4, i32 0, i32 9
  %6 = load ptr, ptr %5, align 8, !tbaa !17
  store ptr %6, ptr %3, align 8, !tbaa !15
  %7 = load ptr, ptr %3, align 8, !tbaa !15
  %8 = getelementptr inbounds nuw %struct.private_data, ptr %7, i32 0, i32 13
  %9 = load ptr, ptr %8, align 8, !tbaa !41
  %10 = call i64 @ZSTD_freeCStream(ptr noundef %9)
  %11 = load ptr, ptr %3, align 8, !tbaa !15
  %12 = getelementptr inbounds nuw %struct.private_data, ptr %11, i32 0, i32 14
  %13 = getelementptr inbounds nuw %struct.ZSTD_outBuffer_s, ptr %12, i32 0, i32 0
  %14 = load ptr, ptr %13, align 8, !tbaa !42
  call void @free(ptr noundef %14) #8
  %15 = load ptr, ptr %3, align 8, !tbaa !15
  call void @free(ptr noundef %15) #8
  %16 = load ptr, ptr %2, align 8, !tbaa !11
  %17 = getelementptr inbounds nuw %struct.archive_write_filter, ptr %16, i32 0, i32 9
  store ptr null, ptr %17, align 8, !tbaa !17
  call void @llvm.lifetime.end.p0(i64 8, ptr %3) #8
  ret i32 0
}