; Function Attrs: nounwind uwtable
define internal noundef i32 @archive_compressor_zstd_free(ptr noundef captures(none) %0) #0 {
  %2 = getelementptr inbounds nuw i8, ptr %0, i64 72
  %3 = load ptr, ptr %2, align 8, !tbaa !4
  %4 = getelementptr inbounds nuw i8, ptr %3, i64 88
  %5 = load ptr, ptr %4, align 8, !tbaa !27
  %6 = tail call i64 @ZSTD_freeCStream(ptr noundef %5) #10
  %7 = getelementptr inbounds nuw i8, ptr %3, i64 96
  %8 = load ptr, ptr %7, align 8, !tbaa !28
  tail call void @free(ptr noundef %8) #10
  tail call void @free(ptr noundef %3) #10
  store ptr null, ptr %2, align 8, !tbaa !4
  ret i32 0
}